; Function Attrs: mustprogress uwtable
define noundef i32 @_ZNK6casadi17Feasiblesqpmethod11step_updateEPvd(ptr nocapture noundef nonnull readonly align 8 dereferenceable(2392) %0, ptr nocapture noundef %1, double noundef %2) local_unnamed_addr #3 align 2 {
  %4 = getelementptr inbounds i8, ptr %0, i64 2320
  %5 = load double, ptr %4, align 8
  %6 = fcmp olt double %5, %2
  br i1 %6, label %7, label %_ZN6casadi11casadi_copyIdEEvPKT_xPS1_.exit21

7:                                                ; preds = %3
  %8 = getelementptr inbounds i8, ptr %1, i64 448
  %9 = load ptr, ptr %8, align 8
  %10 = getelementptr inbounds i8, ptr %0, i64 1640
  %11 = load i64, ptr %10, align 8
  %12 = getelementptr inbounds i8, ptr %0, i64 1648
  %13 = load i64, ptr %12, align 8
  %14 = add nsw i64 %13, %11
  %15 = getelementptr inbounds i8, ptr %1, i64 136
  %16 = load ptr, ptr %15, align 8
  %.not.i = icmp eq ptr %16, null
  br i1 %.not.i, label %_ZN6casadi11casadi_copyIdEEvPKT_xPS1_.exit, label %17

17:                                               ; preds = %7
  %.not15.i = icmp eq ptr %9, null
  %18 = icmp sgt i64 %14, 0
  br i1 %.not15.i, label %.preheader.i, label %.preheader16.i

.preheader16.i:                                   ; preds = %17
  br i1 %18, label %.lr.ph.i, label %_ZN6casadi11casadi_copyIdEEvPKT_xPS1_.exit

.preheader.i:                                     ; preds = %17
  br i1 %18, label %.lr.ph23.preheader.i, label %_ZN6casadi11casadi_copyIdEEvPKT_xPS1_.exit

.lr.ph23.preheader.i:                             ; preds = %.preheader.i
  %19 = shl nuw i64 %14, 3
  tail call void @llvm.memset.p0.i64(ptr nonnull align 8 %16, i8 0, i64 %19, i1 false)
  br label %_ZN6casadi11casadi_copyIdEEvPKT_xPS1_.exit

.lr.ph.i:                                         ; preds = %.preheader16.i, %.lr.ph.i
  %.020.i = phi i64 [ %23, %.lr.ph.i ], [ 0, %.preheader16.i ]
  %.01019.i = phi ptr [ %22, %.lr.ph.i ], [ %16, %.preheader16.i ]
  %.01218.i = phi ptr [ %20, %.lr.ph.i ], [ %9, %.preheader16.i ]
  %20 = getelementptr inbounds i8, ptr %.01218.i, i64 8
  %21 = load double, ptr %.01218.i, align 8
  %22 = getelementptr inbounds i8, ptr %.01019.i, i64 8
  store double %21, ptr %.01019.i, align 8
  %23 = add nuw nsw i64 %.020.i, 1
  %exitcond.not.i = icmp eq i64 %23, %14
  br i1 %exitcond.not.i, label %_ZN6casadi11casadi_copyIdEEvPKT_xPS1_.exit, label %.lr.ph.i, !llvm.loop !58

_ZN6casadi11casadi_copyIdEEvPKT_xPS1_.exit:       ; preds = %.lr.ph.i, %7, %.preheader16.i, %.preheader.i, %.lr.ph23.preheader.i
  %24 = getelementptr inbounds i8, ptr %1, i64 544
  %25 = load double, ptr %24, align 8
  %26 = getelementptr inbounds i8, ptr %1, i64 152
  store double %25, ptr %26, align 8
  %27 = getelementptr inbounds i8, ptr %1, i64 440
  %28 = load ptr, ptr %27, align 8
  %29 = load i64, ptr %10, align 8
  %30 = load i64, ptr %12, align 8
  %31 = add nsw i64 %30, %29
  %32 = getelementptr inbounds i8, ptr %1, i64 144
  %33 = load ptr, ptr %32, align 8
  %.not.i11 = icmp eq ptr %33, null
  br i1 %.not.i11, label %_ZN6casadi11casadi_copyIdEEvPKT_xPS1_.exit21, label %34

34:                                               ; preds = %_ZN6casadi11casadi_copyIdEEvPKT_xPS1_.exit
  %.not15.i12 = icmp eq ptr %28, null
  %35 = icmp sgt i64 %31, 0
  br i1 %.not15.i12, label %.preheader.i19, label %.preheader16.i13

.preheader16.i13:                                 ; preds = %34
  br i1 %35, label %.lr.ph.i14, label %_ZN6casadi11casadi_copyIdEEvPKT_xPS1_.exit21

.preheader.i19:                                   ; preds = %34
  br i1 %35, label %.lr.ph23.preheader.i20, label %_ZN6casadi11casadi_copyIdEEvPKT_xPS1_.exit21

.lr.ph23.preheader.i20:                           ; preds = %.preheader.i19
  %36 = shl nuw i64 %31, 3
  tail call void @llvm.memset.p0.i64(ptr nonnull align 8 %33, i8 0, i64 %36, i1 false)
  br label %_ZN6casadi11casadi_copyIdEEvPKT_xPS1_.exit21

.lr.ph.i14:                                       ; preds = %.preheader16.i13, %.lr.ph.i14
  %.020.i15 = phi i64 [ %40, %.lr.ph.i14 ], [ 0, %.preheader16.i13 ]
  %.01019.i16 = phi ptr [ %39, %.lr.ph.i14 ], [ %33, %.preheader16.i13 ]
  %.01218.i17 = phi ptr [ %37, %.lr.ph.i14 ], [ %28, %.preheader16.i13 ]
  %37 = getelementptr inbounds i8, ptr %.01218.i17, i64 8
  %38 = load double, ptr %.01218.i17, align 8
  %39 = getelementptr inbounds i8, ptr %.01019.i16, i64 8
  store double %38, ptr %.01019.i16, align 8
  %40 = add nuw nsw i64 %.020.i15, 1
  %exitcond.not.i18 = icmp eq i64 %40, %31
  br i1 %exitcond.not.i18, label %_ZN6casadi11casadi_copyIdEEvPKT_xPS1_.exit21, label %.lr.ph.i14, !llvm.loop !58

_ZN6casadi11casadi_copyIdEEvPKT_xPS1_.exit21:     ; preds = %.lr.ph.i14, %3, %.lr.ph23.preheader.i20, %.preheader.i19, %.preheader16.i13, %_ZN6casadi11casadi_copyIdEEvPKT_xPS1_.exit
  %.str.140.sink = phi ptr [ @.str.139, %_ZN6casadi11casadi_copyIdEEvPKT_xPS1_.exit ], [ @.str.139, %.preheader16.i13 ], [ @.str.139, %.preheader.i19 ], [ @.str.139, %.lr.ph23.preheader.i20 ], [ @.str.140, %3 ], [ @.str.139, %.lr.ph.i14 ]
  %.0 = phi i32 [ 0, %_ZN6casadi11casadi_copyIdEEvPKT_xPS1_.exit ], [ 0, %.preheader16.i13 ], [ 0, %.preheader.i19 ], [ 0, %.lr.ph23.preheader.i20 ], [ -1, %3 ], [ 0, %.lr.ph.i14 ]
  %41 = tail call noundef nonnull align 8 dereferenceable(8) ptr @_ZN6casadi4uoutEv()
  %42 = tail call noundef nonnull align 8 dereferenceable(8) ptr @_ZStlsISt11char_traitsIcEERSt13basic_ostreamIcT_ES5_PKc(ptr noundef nonnull align 8 dereferenceable(8) %41, ptr noundef nonnull %.str.140.sink)
  %43 = tail call noundef nonnull align 8 dereferenceable(8) ptr @_ZNSolsEPFRSoS_E(ptr noundef nonnull align 8 dereferenceable(8) %42, ptr noundef nonnull @_ZSt4endlIcSt11char_traitsIcEERSt13basic_ostreamIT_T0_ES6_)
  ret i32 %.0
}